target datalayout = "e-m:e-p270:32:32-p271:32:32-p272:64:64-i64:64-i128:128-f80:128-n8:16:32:64-S128"
target triple = "x86_64-unknown-linux-gnu"

%"class.std::__cxx11::basic_string" = type { %"struct.std::__cxx11::basic_string<char>::_Alloc_hider", i64, %union.anon }
%"struct.std::__cxx11::basic_string<char>::_Alloc_hider" = type { ptr }
%union.anon = type { i64, [8 x i8] }
%"class.zmq::mechanism_base_t" = type { %"class.zmq::mechanism_t", ptr }
%"class.zmq::mechanism_t" = type { ptr, %"struct.zmq::options_t", %"class.std::map", %"class.std::map", %"struct.zmq::blob_t", %"struct.zmq::blob_t" }
%"struct.zmq::options_t" = type { i32, i32, i64, i8, [256 x i8], i32, i32, i32, i32, i32, i32, i32, i32, i8, %"struct.zmq::atomic_value_t", i32, i32, i32, i32, i32, i32, i64, i32, i32, i8, i32, i8, i8, i8, i8, i8, %"class.std::__cxx11::basic_string", %"class.std::__cxx11::basic_string", %"class.std::__cxx11::basic_string", i32, i32, i32, i32, %"class.std::vector", %"class.std::set", %"class.std::set", %"class.std::set.6", i32, i32, %"class.std::__cxx11::basic_string", %"class.std::__cxx11::basic_string", %"class.std::__cxx11::basic_string", [32 x i8], [32 x i8], [32 x i8], %"class.std::__cxx11::basic_string", %"class.std::__cxx11::basic_string", i32, i32, i8, i32, i8, i32, i8, i16, i32, i32, i32, %"class.std::__cxx11::basic_string", i8, i8, i8, i32, i32, i8, i32, %"class.std::map", i32, %"class.std::__cxx11::basic_string", %"class.std::__cxx11::basic_string", %"class.std::__cxx11::basic_string", %"class.std::__cxx11::basic_string", i8, %"class.std::vector.21", i8, %"class.std::vector.21", i8, %"class.std::vector.21", i8, i32, i8, i32, i32, i32, i32, i32, i8, i32 }
%"struct.zmq::atomic_value_t" = type { %"struct.std::atomic" }
%"struct.std::atomic" = type { %"struct.std::__atomic_base" }
%"struct.std::__atomic_base" = type { i32 }
%"class.std::vector" = type { %"struct.std::_Vector_base" }
%"struct.std::_Vector_base" = type { %"struct.std::_Vector_base<zmq::tcp_address_mask_t, std::allocator<zmq::tcp_address_mask_t>>::_Vector_impl" }
%"struct.std::_Vector_base<zmq::tcp_address_mask_t, std::allocator<zmq::tcp_address_mask_t>>::_Vector_impl" = type { %"struct.std::_Vector_base<zmq::tcp_address_mask_t, std::allocator<zmq::tcp_address_mask_t>>::_Vector_impl_data" }
%"struct.std::_Vector_base<zmq::tcp_address_mask_t, std::allocator<zmq::tcp_address_mask_t>>::_Vector_impl_data" = type { ptr, ptr, ptr }
%"class.std::set" = type { %"class.std::_Rb_tree" }
%"class.std::_Rb_tree" = type { %"struct.std::_Rb_tree<unsigned int, unsigned int, std::_Identity<unsigned int>, std::less<unsigned int>>::_Rb_tree_impl" }
%"struct.std::_Rb_tree<unsigned int, unsigned int, std::_Identity<unsigned int>, std::less<unsigned int>>::_Rb_tree_impl" = type { %"struct.std::_Rb_tree_key_compare", %"struct.std::_Rb_tree_header" }
%"struct.std::_Rb_tree_key_compare" = type { %"struct.std::less" }
%"struct.std::less" = type { i8 }
%"struct.std::_Rb_tree_header" = type { %"struct.std::_Rb_tree_node_base", i64 }
%"struct.std::_Rb_tree_node_base" = type { i32, ptr, ptr, ptr }
%"class.std::set.6" = type { %"class.std::_Rb_tree.7" }
%"class.std::_Rb_tree.7" = type { %"struct.std::_Rb_tree<int, int, std::_Identity<int>, std::less<int>>::_Rb_tree_impl" }
%"struct.std::_Rb_tree<int, int, std::_Identity<int>, std::less<int>>::_Rb_tree_impl" = type { %"struct.std::_Rb_tree_key_compare.11", %"struct.std::_Rb_tree_header" }
%"struct.std::_Rb_tree_key_compare.11" = type { %"struct.std::less.12" }
%"struct.std::less.12" = type { i8 }
%"class.std::vector.21" = type { %"struct.std::_Vector_base.22" }
%"struct.std::_Vector_base.22" = type { %"struct.std::_Vector_base<unsigned char, std::allocator<unsigned char>>::_Vector_impl" }
%"struct.std::_Vector_base<unsigned char, std::allocator<unsigned char>>::_Vector_impl" = type { %"struct.std::_Vector_base<unsigned char, std::allocator<unsigned char>>::_Vector_impl_data" }
%"struct.std::_Vector_base<unsigned char, std::allocator<unsigned char>>::_Vector_impl_data" = type { ptr, ptr, ptr }
%"class.std::map" = type { %"class.std::_Rb_tree.14" }
%"class.std::_Rb_tree.14" = type { %"struct.std::_Rb_tree<std::__cxx11::basic_string<char>, std::pair<const std::__cxx11::basic_string<char>, std::__cxx11::basic_string<char>>, std::_Select1st<std::pair<const std::__cxx11::basic_string<char>, std::__cxx11::basic_string<char>>>, std::less<std::__cxx11::basic_string<char>>>::_Rb_tree_impl" }
%"struct.std::_Rb_tree<std::__cxx11::basic_string<char>, std::pair<const std::__cxx11::basic_string<char>, std::__cxx11::basic_string<char>>, std::_Select1st<std::pair<const std::__cxx11::basic_string<char>, std::__cxx11::basic_string<char>>>, std::less<std::__cxx11::basic_string<char>>>::_Rb_tree_impl" = type { %"struct.std::_Rb_tree_key_compare.18", %"struct.std::_Rb_tree_header" }
%"struct.std::_Rb_tree_key_compare.18" = type { %"struct.std::less.19" }
%"struct.std::less.19" = type { i8 }
%"struct.zmq::blob_t" = type <{ ptr, i64, i8, [7 x i8] }>
%"class.zmq::zap_client_common_handshake_t" = type { %"class.zmq::zap_client_t.base", i32, i32, %"class.zmq::mechanism_base_t" }
%"class.zmq::zap_client_t.base" = type { ptr, %"class.std::__cxx11::basic_string", %"class.std::__cxx11::basic_string" }

; Function Attrs: mustprogress nounwind uwtable
define noundef i32 @_ZNK3zmq29zap_client_common_handshake_t6statusEv(ptr noundef nonnull align 8 dereferenceable(80) %this) unnamed_addr #6 align 2 {
entry:
  %retval = alloca i32, align 4
  %this.addr = alloca ptr, align 8
  store ptr %this, ptr %this.addr, align 8
  %this1 = load ptr, ptr %this.addr, align 8
  %state = getelementptr inbounds %"class.zmq::zap_client_common_handshake_t", ptr %this1, i32 0, i32 1
  %0 = load i32, ptr %state, align 8
  %cmp = icmp eq i32 %0, 7
  br i1 %cmp, label %if.then, label %if.end

if.then:                                          ; preds = %entry
  store i32 1, ptr %retval, align 4
  br label %return

if.end:                                           ; preds = %entry
  %state2 = getelementptr inbounds %"class.zmq::zap_client_common_handshake_t", ptr %this1, i32 0, i32 1
  %1 = load i32, ptr %state2, align 8
  %cmp3 = icmp eq i32 %1, 6
  br i1 %cmp3, label %if.then4, label %if.end5

if.then4:                                         ; preds = %if.end
  store i32 2, ptr %retval, align 4
  br label %return

if.end5:                                          ; preds = %if.end
  store i32 0, ptr %retval, align 4
  br label %return

return:                                           ; preds = %if.end5, %if.then4, %if.then
  %2 = load i32, ptr %retval, align 4
  ret i32 %2
}