; Function Attrs: mustprogress nofree norecurse nosync nounwind willreturn memory(argmem: read) uwtable
define noundef i32 @_ZNK3zmq29zap_client_common_handshake_t6statusEv(ptr nocapture noundef nonnull readonly align 8 dereferenceable(80) %this) unnamed_addr #6 align 2 {
entry:
  %state = getelementptr inbounds i8, ptr %this, i64 72
  %0 = load i32, ptr %state, align 8
  %switch.selectcmp = icmp eq i32 %0, 6
  %switch.select = select i1 %switch.selectcmp, i32 2, i32 0
  %switch.selectcmp1 = icmp eq i32 %0, 7
  %switch.select2 = select i1 %switch.selectcmp1, i32 1, i32 %switch.select
  ret i32 %switch.select2
}